target datalayout = "e-m:e-p270:32:32-p271:32:32-p272:64:64-i64:64-i128:128-f80:128-n8:16:32:64-S128"
target triple = "x86_64-pc-linux-gnu"

%struct.ObjectAddress = type { i32, i32, i32 }
%struct.EventTriggerQueryState = type { ptr, %struct.slist_head, i8, i32, i32, i8, ptr, ptr, ptr }
%struct.slist_head = type { %struct.slist_node }
%struct.slist_node = type { ptr }
%struct.CollectedCommand = type { i32, i8, ptr, %union.anon, ptr }
%union.anon = type { %struct.anon.2 }
%struct.anon.2 = type { %struct.ObjectAddress, ptr, ptr }

@currentEventTriggerState = internal global ptr null, align 8
@creating_extension = external global i8, align 1
@CurrentMemoryContext = external global ptr, align 8

; Function Attrs: inlinehint nounwind uwtable
define internal ptr @MemoryContextSwitchTo(ptr noundef %0) #6 {
  %2 = alloca ptr, align 8
  %3 = alloca ptr, align 8
  store ptr %0, ptr %2, align 8
  call void @llvm.lifetime.start.p0(i64 8, ptr %3) #10
  %4 = load ptr, ptr @CurrentMemoryContext, align 8
  store ptr %4, ptr %3, align 8
  %5 = load ptr, ptr %2, align 8
  store ptr %5, ptr @CurrentMemoryContext, align 8
  %6 = load ptr, ptr %3, align 8
  call void @llvm.lifetime.end.p0(i64 8, ptr %3) #10
  ret ptr %6
}

; Function Attrs: nounwind uwtable
define dso_local void @EventTriggerCollectAlterOpFam(ptr noundef %0, i32 noundef %1, ptr noundef %2, ptr noundef %3) #0 {
  %5 = alloca ptr, align 8
  %6 = alloca i32, align 4
  %7 = alloca ptr, align 8
  %8 = alloca ptr, align 8
  %9 = alloca ptr, align 8
  %10 = alloca ptr, align 8
  %11 = alloca i32, align 4
  store ptr %0, ptr %5, align 8
  store i32 %1, ptr %6, align 4
  store ptr %2, ptr %7, align 8
  store ptr %3, ptr %8, align 8
  call void @llvm.lifetime.start.p0(i64 8, ptr %9) #10
  call void @llvm.lifetime.start.p0(i64 8, ptr %10) #10
  %12 = load ptr, ptr @currentEventTriggerState, align 8
  %13 = icmp ne ptr %12, null
  br i1 %13, label %14, label %19

14:                                               ; preds = %4
  %15 = load ptr, ptr @currentEventTriggerState, align 8
  %16 = getelementptr inbounds nuw %struct.EventTriggerQueryState, ptr %15, i32 0, i32 5
  %17 = load i8, ptr %16, align 4, !range !8, !noundef !9
  %18 = trunc i8 %17 to i1
  br i1 %18, label %19, label %20

19:                                               ; preds = %14, %4
  store i32 1, ptr %11, align 4
  br label %70

20:                                               ; preds = %14
  %21 = load ptr, ptr @currentEventTriggerState, align 8
  %22 = getelementptr inbounds nuw %struct.EventTriggerQueryState, ptr %21, i32 0, i32 0
  %23 = load ptr, ptr %22, align 8
  %24 = call ptr @MemoryContextSwitchTo(ptr noundef %23)
  store ptr %24, ptr %9, align 8
  %25 = call ptr @palloc(i64 noundef 56)
  store ptr %25, ptr %10, align 8
  %26 = load ptr, ptr %10, align 8
  %27 = getelementptr inbounds nuw %struct.CollectedCommand, ptr %26, i32 0, i32 0
  store i32 3, ptr %27, align 8
  %28 = load i8, ptr @creating_extension, align 1, !range !8, !noundef !9
  %29 = trunc i8 %28 to i1
  %30 = load ptr, ptr %10, align 8
  %31 = getelementptr inbounds nuw %struct.CollectedCommand, ptr %30, i32 0, i32 1
  %32 = zext i1 %29 to i8
  store i8 %32, ptr %31, align 4
  br label %33

33:                                               ; preds = %20
  %34 = load ptr, ptr %10, align 8
  %35 = getelementptr inbounds nuw %struct.CollectedCommand, ptr %34, i32 0, i32 3
  %36 = getelementptr inbounds nuw %struct.anon.2, ptr %35, i32 0, i32 0
  %37 = getelementptr inbounds nuw %struct.ObjectAddress, ptr %36, i32 0, i32 0
  store i32 2753, ptr %37, align 8
  %38 = load i32, ptr %6, align 4
  %39 = load ptr, ptr %10, align 8
  %40 = getelementptr inbounds nuw %struct.CollectedCommand, ptr %39, i32 0, i32 3
  %41 = getelementptr inbounds nuw %struct.anon.2, ptr %40, i32 0, i32 0
  %42 = getelementptr inbounds nuw %struct.ObjectAddress, ptr %41, i32 0, i32 1
  store i32 %38, ptr %42, align 4
  %43 = load ptr, ptr %10, align 8
  %44 = getelementptr inbounds nuw %struct.CollectedCommand, ptr %43, i32 0, i32 3
  %45 = getelementptr inbounds nuw %struct.anon.2, ptr %44, i32 0, i32 0
  %46 = getelementptr inbounds nuw %struct.ObjectAddress, ptr %45, i32 0, i32 2
  store i32 0, ptr %46, align 8
  br label %47

47:                                               ; preds = %33
  br label %48

48:                                               ; preds = %47
  %49 = load ptr, ptr %7, align 8
  %50 = load ptr, ptr %10, align 8
  %51 = getelementptr inbounds nuw %struct.CollectedCommand, ptr %50, i32 0, i32 3
  %52 = getelementptr inbounds nuw %struct.anon.2, ptr %51, i32 0, i32 1
  store ptr %49, ptr %52, align 8
  %53 = load ptr, ptr %8, align 8
  %54 = load ptr, ptr %10, align 8
  %55 = getelementptr inbounds nuw %struct.CollectedCommand, ptr %54, i32 0, i32 3
  %56 = getelementptr inbounds nuw %struct.anon.2, ptr %55, i32 0, i32 2
  store ptr %53, ptr %56, align 8
  %57 = load ptr, ptr %5, align 8
  %58 = call ptr @copyObjectImpl(ptr noundef %57)
  %59 = load ptr, ptr %10, align 8
  %60 = getelementptr inbounds nuw %struct.CollectedCommand, ptr %59, i32 0, i32 2
  store ptr %58, ptr %60, align 8
  %61 = load ptr, ptr @currentEventTriggerState, align 8
  %62 = getelementptr inbounds nuw %struct.EventTriggerQueryState, ptr %61, i32 0, i32 7
  %63 = load ptr, ptr %62, align 8
  %64 = load ptr, ptr %10, align 8
  %65 = call ptr @lappend(ptr noundef %63, ptr noundef %64)
  %66 = load ptr, ptr @currentEventTriggerState, align 8
  %67 = getelementptr inbounds nuw %struct.EventTriggerQueryState, ptr %66, i32 0, i32 7
  store ptr %65, ptr %67, align 8
  %68 = load ptr, ptr %9, align 8
  %69 = call ptr @MemoryContextSwitchTo(ptr noundef %68)
  store i32 0, ptr %11, align 4
  br label %70

70:                                               ; preds = %48, %19
  call void @llvm.lifetime.end.p0(i64 8, ptr %10) #10
  call void @llvm.lifetime.end.p0(i64 8, ptr %9) #10
  %71 = load i32, ptr %11, align 4
  switch i32 %71, label %73 [
    i32 0, label %72
    i32 1, label %72
  ]

72:                                               ; preds = %70, %70
  ret void

73:                                               ; preds = %70
  unreachable
}